target datalayout = "e-m:e-p270:32:32-p271:32:32-p272:64:64-i64:64-i128:128-f80:128-n8:16:32:64-S128"
target triple = "x86_64-pc-linux-gnu"

%struct._e_prefs = type { ptr, i32, %struct.color_t, %struct.color_t, %struct.color_t, %struct.color_t, %struct.color_t, %struct.color_t, %struct.color_t, i8, i32, ptr, i32, %struct.color_t, %struct.color_t, i32, %struct.color_t, %struct.color_t, i32, %struct.color_t, %struct.color_t, %struct.color_t, %struct.color_t, ptr, ptr, i8, i8, i8, i32, i32, i32, ptr, i32, ptr, i8, i8, i8, ptr, ptr, ptr, i32, i32, i32, i32, i8, i32, i32, i32, i32, i32, ptr, i8, i8, i8, i8, i8, ptr, ptr, ptr, ptr, ptr, ptr, ptr, ptr, ptr, i8, i8, i8, i8, i32, i8, i8, i8, ptr, i32, i8, i8, i32, i8, i8, i8, i32, i8, i32, i8, i8, i8, i32, i32, i32, ptr, i8, i8, i8, i8, i8, i8, i32, i32, i8, i8, i8, i8, i32, i32, i32, i32, i8, i8, i32, i8, i8, i32, i32, i8, i8, i8, i32, i8, i8, i8 }
%struct.color_t = type { i16, i16, i16 }
%struct.preference = type { ptr, ptr, ptr, i32, i32, i32, %union.anon, %union.anon.0, %union.anon.1, %union.anon.2, %struct.pref_custom_cbs, ptr, ptr }
%union.anon = type { ptr }
%union.anon.0 = type { ptr }
%union.anon.1 = type { ptr }
%union.anon.2 = type { %struct.anon }
%struct.anon = type { ptr, i8 }
%struct.pref_custom_cbs = type { ptr, ptr, ptr, ptr, ptr, ptr, ptr }
%struct._GList = type { ptr, ptr, ptr }

@prefs = global %struct._e_prefs zeroinitializer, align 8

; Function Attrs: null_pointer_is_valid sspstrong uwtable
define void @prefs_clear_string_list(ptr noundef %0) #1 {
  %2 = alloca ptr, align 8
  store ptr %0, ptr %2, align 8
  %3 = load ptr, ptr %2, align 8
  call void @g_list_free_full(ptr noundef %3, ptr noundef @g_free)
  ret void
}

; Function Attrs: null_pointer_is_valid sspstrong uwtable
define internal ptr @capture_column_to_str_cb(ptr noundef %0, i1 noundef zeroext %1) #1 {
  %3 = alloca ptr, align 8
  %4 = alloca i8, align 1
  %5 = alloca ptr, align 8
  %6 = alloca ptr, align 8
  %7 = alloca ptr, align 8
  %8 = alloca ptr, align 8
  %9 = alloca ptr, align 8
  store ptr %0, ptr %3, align 8
  %10 = zext i1 %1 to i8
  store i8 %10, ptr %4, align 1
  call void @llvm.lifetime.start.p0(i64 8, ptr %5) #17
  %11 = load i8, ptr %4, align 1, !range !6, !noundef !7
  %12 = trunc i8 %11 to i1
  br i1 %12, label %13, label %17

13:                                               ; preds = %2
  %14 = load ptr, ptr %3, align 8
  %15 = getelementptr inbounds nuw %struct.preference, ptr %14, i32 0, i32 8
  %16 = load ptr, ptr %15, align 8
  br label %19

17:                                               ; preds = %2
  %18 = load ptr, ptr getelementptr inbounds nuw (%struct._e_prefs, ptr @prefs, i32 0, i32 73), align 8
  br label %19

19:                                               ; preds = %17, %13
  %20 = phi ptr [ %16, %13 ], [ %18, %17 ]
  store ptr %20, ptr %5, align 8
  call void @llvm.lifetime.start.p0(i64 8, ptr %6) #17
  %21 = load ptr, ptr %5, align 8
  %22 = call ptr @g_list_first(ptr noundef %21)
  store ptr %22, ptr %6, align 8
  call void @llvm.lifetime.start.p0(i64 8, ptr %7) #17
  store ptr null, ptr %7, align 8
  call void @llvm.lifetime.start.p0(i64 8, ptr %8) #17
  call void @llvm.lifetime.start.p0(i64 8, ptr %9) #17
  br label %23

23:                                               ; preds = %26, %19
  %24 = load ptr, ptr %6, align 8
  %25 = icmp ne ptr %24, null
  br i1 %25, label %26, label %37

26:                                               ; preds = %23
  %27 = load ptr, ptr %6, align 8
  %28 = getelementptr inbounds nuw %struct._GList, ptr %27, i32 0, i32 0
  %29 = load ptr, ptr %28, align 8
  store ptr %29, ptr %8, align 8
  %30 = load ptr, ptr %7, align 8
  %31 = load ptr, ptr %8, align 8
  %32 = call noalias ptr @g_strdup(ptr noundef %31)
  %33 = call ptr @g_list_append(ptr noundef %30, ptr noundef %32)
  store ptr %33, ptr %7, align 8
  %34 = load ptr, ptr %6, align 8
  %35 = getelementptr inbounds nuw %struct._GList, ptr %34, i32 0, i32 1
  %36 = load ptr, ptr %35, align 8
  store ptr %36, ptr %6, align 8
  br label %23, !llvm.loop !57

37:                                               ; preds = %23
  %38 = load ptr, ptr %7, align 8
  %39 = call ptr @join_string_list(ptr noundef %38)
  store ptr %39, ptr %9, align 8
  %40 = load ptr, ptr %7, align 8
  call void @prefs_clear_string_list(ptr noundef %40)
  %41 = load ptr, ptr %9, align 8
  call void @llvm.lifetime.end.p0(i64 8, ptr %9) #17
  call void @llvm.lifetime.end.p0(i64 8, ptr %8) #17
  call void @llvm.lifetime.end.p0(i64 8, ptr %7) #17
  call void @llvm.lifetime.end.p0(i64 8, ptr %6) #17
  call void @llvm.lifetime.end.p0(i64 8, ptr %5) #17
  ret ptr %41
}