; Function Attrs: null_pointer_is_valid sspstrong uwtable
define internal ptr @capture_column_to_str_cb(ptr noundef readonly captures(none) %0, i1 noundef zeroext %1) #1 {
  %3 = getelementptr inbounds nuw i8, ptr %0, i64 56
  %.in = select i1 %1, ptr %3, ptr getelementptr inbounds nuw (i8, ptr @prefs, i64 368)
  %4 = load ptr, ptr %.in, align 8
  %5 = tail call ptr @g_list_first(ptr noundef %4)
  %.not11 = icmp eq ptr %5, null
  br i1 %.not11, label %._crit_edge, label %.lr.ph

.lr.ph:                                           ; preds = %2, %.lr.ph
  %.013 = phi ptr [ %10, %.lr.ph ], [ %5, %2 ]
  %.01012 = phi ptr [ %8, %.lr.ph ], [ null, %2 ]
  %6 = load ptr, ptr %.013, align 8
  %7 = tail call noalias ptr @g_strdup(ptr noundef %6)
  %8 = tail call ptr @g_list_append(ptr noundef %.01012, ptr noundef %7)
  %9 = getelementptr inbounds nuw i8, ptr %.013, i64 8
  %10 = load ptr, ptr %9, align 8
  %.not = icmp eq ptr %10, null
  br i1 %.not, label %._crit_edge, label %.lr.ph, !llvm.loop !61

._crit_edge:                                      ; preds = %.lr.ph, %2
  %.010.lcssa = phi ptr [ null, %2 ], [ %8, %.lr.ph ]
  %11 = tail call ptr @join_string_list(ptr noundef %.010.lcssa)
  tail call void @g_list_free_full(ptr noundef %.010.lcssa, ptr noundef nonnull @g_free)
  ret ptr %11
}